target datalayout = "e-m:e-p270:32:32-p271:32:32-p272:64:64-i64:64-i128:128-f80:128-n8:16:32:64-S128"
target triple = "x86_64-pc-linux-gnu"

%"class.mbp::term_graph" = type <{ ptr, %class.ptr_vector, %class.ref_vector, %class.u_map, %class.ref_vector.2, ptr, i8, i8, [6 x i8], %class.u_map.7, %class.plugin_manager, %class.ptr_hashtable, %class.vector.16, %"class.mbp::term_graph::is_variable_proc", %class.vector.16, %class.vector.19, %"struct.mbp::term_graph::add_deq_proc", [4 x i8] }>
%class.ptr_vector = type { %class.vector }
%class.vector = type { ptr }
%class.ref_vector = type { %class.ref_vector_core }
%class.ref_vector_core = type { %class.ref_manager_wrapper, %class.ptr_vector.0 }
%class.ref_manager_wrapper = type { ptr }
%class.ptr_vector.0 = type { %class.vector.1 }
%class.vector.1 = type { ptr }
%class.u_map = type { %class.map }
%class.map = type { %class.table2map }
%class.table2map = type { %class.core_hashtable }
%class.core_hashtable = type <{ ptr, i32, i32, i32, [4 x i8] }>
%class.ref_vector.2 = type { %class.ref_vector_core.3 }
%class.ref_vector_core.3 = type { %class.ref_manager_wrapper.4, %class.ptr_vector.5 }
%class.ref_manager_wrapper.4 = type { ptr }
%class.ptr_vector.5 = type { %class.vector.6 }
%class.vector.6 = type { ptr }
%class.u_map.7 = type { %class.map.8 }
%class.map.8 = type { %class.table2map.9 }
%class.table2map.9 = type { %class.core_hashtable.10 }
%class.core_hashtable.10 = type <{ ptr, i32, i32, i32, [4 x i8] }>
%class.plugin_manager = type { %class.ptr_vector.12, %class.ptr_vector.12 }
%class.ptr_vector.12 = type { %class.vector.13 }
%class.vector.13 = type { ptr }
%class.ptr_hashtable = type { %class.core_hashtable.base.15, [4 x i8] }
%class.core_hashtable.base.15 = type <{ ptr, i32, i32, i32 }>
%"class.mbp::term_graph::is_variable_proc" = type { %class.is_variable_proc, i8, [7 x i8], %class.obj_hashtable, %class.obj_hashtable }
%class.is_variable_proc = type { ptr }
%class.obj_hashtable = type { %class.core_hashtable.base.18, [4 x i8] }
%class.core_hashtable.base.18 = type <{ ptr, i32, i32, i32 }>
%class.vector.16 = type { ptr }
%class.vector.19 = type { ptr }
%"struct.mbp::term_graph::add_deq_proc" = type { i32 }
%class.ast = type { i32, i32, i32, i32 }
%struct._key_data = type { i32, ptr }
%class.default_map_entry = type { %class.default_hash_entry }
%class.default_hash_entry = type { i32, i32, %struct._key_data }

; Function Attrs: mustprogress nounwind uwtable
define linkonce_odr hidden noundef zeroext i1 @_ZNK4u_eqclEjj(ptr noundef nonnull align 1 dereferenceable(1) %0, i32 noundef %1, i32 noundef %2) #6 comdat align 2 {
  %4 = alloca ptr, align 8
  %5 = alloca i32, align 4
  %6 = alloca i32, align 4
  store ptr %0, ptr %4, align 8, !tbaa !465
  store i32 %1, ptr %5, align 4, !tbaa !27
  store i32 %2, ptr %6, align 4, !tbaa !27
  %7 = load i32, ptr %5, align 4, !tbaa !27
  %8 = load i32, ptr %6, align 4, !tbaa !27
  %9 = icmp eq i32 %7, %8
  ret i1 %9
}

; Function Attrs: mustprogress nounwind uwtable
define linkonce_odr hidden noundef i32 @_ZNK6u_hashclEj(ptr noundef nonnull align 1 dereferenceable(1) %0, i32 noundef %1) #6 comdat align 2 {
  %3 = alloca ptr, align 8
  %4 = alloca i32, align 4
  store ptr %0, ptr %3, align 8, !tbaa !463
  store i32 %1, ptr %4, align 4, !tbaa !27
  %5 = load i32, ptr %4, align 4, !tbaa !27
  ret i32 %5
}

; Function Attrs: mustprogress uwtable
define linkonce_odr hidden noundef zeroext i1 @_ZNK9table2mapI17default_map_entryIjPN3mbp4termEE6u_hash4u_eqE13entry_eq_procclERK9_key_dataIjS3_ESC_(ptr noundef nonnull align 1 dereferenceable(1) %0, ptr noundef nonnull align 8 dereferenceable(16) %1, ptr noundef nonnull align 8 dereferenceable(16) %2) #4 comdat align 2 {
  %4 = alloca ptr, align 8
  %5 = alloca ptr, align 8
  %6 = alloca ptr, align 8
  store ptr %0, ptr %4, align 8, !tbaa !469
  store ptr %1, ptr %5, align 8, !tbaa !537
  store ptr %2, ptr %6, align 8, !tbaa !537
  %7 = load ptr, ptr %4, align 8
  %8 = load ptr, ptr %5, align 8, !tbaa !537
  %9 = getelementptr inbounds nuw %struct._key_data, ptr %8, i32 0, i32 0
  %10 = load i32, ptr %9, align 8, !tbaa !207
  %11 = load ptr, ptr %6, align 8, !tbaa !537
  %12 = getelementptr inbounds nuw %struct._key_data, ptr %11, i32 0, i32 0
  %13 = load i32, ptr %12, align 8, !tbaa !207
  %14 = call noundef zeroext i1 @_ZNK4u_eqclEjj(ptr noundef nonnull align 1 dereferenceable(1) %7, i32 noundef %10, i32 noundef %13)
  ret i1 %14
}

; Function Attrs: mustprogress uwtable
define linkonce_odr hidden noundef i32 @_ZNK9table2mapI17default_map_entryIjPN3mbp4termEE6u_hash4u_eqE15entry_hash_procclERK9_key_dataIjS3_E(ptr noundef nonnull align 1 dereferenceable(1) %0, ptr noundef nonnull align 8 dereferenceable(16) %1) #4 comdat align 2 {
  %3 = alloca ptr, align 8
  %4 = alloca ptr, align 8
  store ptr %0, ptr %3, align 8, !tbaa !467
  store ptr %1, ptr %4, align 8, !tbaa !537
  %5 = load ptr, ptr %3, align 8
  %6 = load ptr, ptr %4, align 8, !tbaa !537
  %7 = getelementptr inbounds nuw %struct._key_data, ptr %6, i32 0, i32 0
  %8 = load i32, ptr %7, align 8, !tbaa !207
  %9 = call noundef i32 @_ZNK6u_hashclEj(ptr noundef nonnull align 1 dereferenceable(1) %5, i32 noundef %8)
  ret i32 %9
}

; Function Attrs: mustprogress nounwind uwtable
define linkonce_odr hidden noundef zeroext i1 @_ZNK18default_hash_entryI9_key_dataIjPN3mbp4termEEE7is_freeEv(ptr noundef nonnull align 8 dereferenceable(24) %0) #6 comdat align 2 {
  %2 = alloca ptr, align 8
  store ptr %0, ptr %2, align 8, !tbaa !478
  %3 = load ptr, ptr %2, align 8
  %4 = getelementptr inbounds nuw %class.default_hash_entry, ptr %3, i32 0, i32 1
  %5 = load i32, ptr %4, align 4, !tbaa !483
  %6 = icmp eq i32 %5, 0
  ret i1 %6
}

; Function Attrs: mustprogress uwtable
define linkonce_odr hidden noundef zeroext i1 @_ZNK14core_hashtableI17default_map_entryIjPN3mbp4termEEN9table2mapIS4_6u_hash4u_eqE15entry_hash_procENS8_13entry_eq_procEE6equalsERK9_key_dataIjS3_ESF_(ptr noundef nonnull align 8 dereferenceable(20) %0, ptr noundef nonnull align 8 dereferenceable(16) %1, ptr noundef nonnull align 8 dereferenceable(16) %2) #4 comdat align 2 {
  %4 = alloca ptr, align 8
  %5 = alloca ptr, align 8
  %6 = alloca ptr, align 8
  store ptr %0, ptr %4, align 8, !tbaa !471
  store ptr %1, ptr %5, align 8, !tbaa !537
  store ptr %2, ptr %6, align 8, !tbaa !537
  %7 = load ptr, ptr %4, align 8
  %8 = load ptr, ptr %5, align 8, !tbaa !537
  %9 = load ptr, ptr %6, align 8, !tbaa !537
  %10 = call noundef zeroext i1 @_ZNK9table2mapI17default_map_entryIjPN3mbp4termEE6u_hash4u_eqE13entry_eq_procclERK9_key_dataIjS3_ESC_(ptr noundef nonnull align 1 dereferenceable(1) %7, ptr noundef nonnull align 8 dereferenceable(16) %8, ptr noundef nonnull align 8 dereferenceable(16) %9)
  ret i1 %10
}

; Function Attrs: mustprogress nounwind uwtable
define linkonce_odr hidden noundef nonnull align 8 dereferenceable(16) ptr @_ZN18default_hash_entryI9_key_dataIjPN3mbp4termEEE8get_dataEv(ptr noundef nonnull align 8 dereferenceable(24) %0) #6 comdat align 2 {
  %2 = alloca ptr, align 8
  store ptr %0, ptr %2, align 8, !tbaa !478
  %3 = load ptr, ptr %2, align 8
  %4 = getelementptr inbounds nuw %class.default_hash_entry, ptr %3, i32 0, i32 2
  ret ptr %4
}

; Function Attrs: mustprogress nounwind uwtable
define linkonce_odr hidden noundef i32 @_ZNK18default_hash_entryI9_key_dataIjPN3mbp4termEEE8get_hashEv(ptr noundef nonnull align 8 dereferenceable(24) %0) #6 comdat align 2 {
  %2 = alloca ptr, align 8
  store ptr %0, ptr %2, align 8, !tbaa !478
  %3 = load ptr, ptr %2, align 8
  %4 = getelementptr inbounds nuw %class.default_hash_entry, ptr %3, i32 0, i32 0
  %5 = load i32, ptr %4, align 8, !tbaa !480
  ret i32 %5
}

; Function Attrs: mustprogress nounwind uwtable
define linkonce_odr hidden noundef zeroext i1 @_ZNK18default_hash_entryI9_key_dataIjPN3mbp4termEEE7is_usedEv(ptr noundef nonnull align 8 dereferenceable(24) %0) #6 comdat align 2 {
  %2 = alloca ptr, align 8
  store ptr %0, ptr %2, align 8, !tbaa !478
  %3 = load ptr, ptr %2, align 8
  %4 = getelementptr inbounds nuw %class.default_hash_entry, ptr %3, i32 0, i32 1
  %5 = load i32, ptr %4, align 4, !tbaa !483
  %6 = icmp eq i32 %5, 2
  ret i1 %6
}

; Function Attrs: mustprogress uwtable
define linkonce_odr hidden noundef i32 @_ZNK14core_hashtableI17default_map_entryIjPN3mbp4termEEN9table2mapIS4_6u_hash4u_eqE15entry_hash_procENS8_13entry_eq_procEE8get_hashERK9_key_dataIjS3_E(ptr noundef nonnull align 8 dereferenceable(20) %0, ptr noundef nonnull align 8 dereferenceable(16) %1) #4 comdat align 2 {
  %3 = alloca ptr, align 8
  %4 = alloca ptr, align 8
  store ptr %0, ptr %3, align 8, !tbaa !471
  store ptr %1, ptr %4, align 8, !tbaa !537
  %5 = load ptr, ptr %3, align 8
  %6 = load ptr, ptr %4, align 8, !tbaa !537
  %7 = call noundef i32 @_ZNK9table2mapI17default_map_entryIjPN3mbp4termEE6u_hash4u_eqE15entry_hash_procclERK9_key_dataIjS3_E(ptr noundef nonnull align 1 dereferenceable(1) %5, ptr noundef nonnull align 8 dereferenceable(16) %6)
  ret i32 %7
}

; Function Attrs: mustprogress uwtable
define linkonce_odr hidden noundef ptr @_ZNK14core_hashtableI17default_map_entryIjPN3mbp4termEEN9table2mapIS4_6u_hash4u_eqE15entry_hash_procENS8_13entry_eq_procEE9find_coreERK9_key_dataIjS3_E(ptr noundef nonnull align 8 dereferenceable(20) %0, ptr noundef nonnull align 8 dereferenceable(16) %1) #4 comdat align 2 {
  %3 = alloca ptr, align 8
  %4 = alloca ptr, align 8
  %5 = alloca ptr, align 8
  %6 = alloca i32, align 4
  %7 = alloca i32, align 4
  %8 = alloca i32, align 4
  %9 = alloca ptr, align 8
  %10 = alloca ptr, align 8
  %11 = alloca ptr, align 8
  %12 = alloca i32, align 4
  store ptr %0, ptr %4, align 8, !tbaa !471
  store ptr %1, ptr %5, align 8, !tbaa !537
  %13 = load ptr, ptr %4, align 8
  call void @llvm.lifetime.start.p0(i64 4, ptr %6) #3
  %14 = load ptr, ptr %5, align 8, !tbaa !537
  %15 = call noundef i32 @_ZNK14core_hashtableI17default_map_entryIjPN3mbp4termEEN9table2mapIS4_6u_hash4u_eqE15entry_hash_procENS8_13entry_eq_procEE8get_hashERK9_key_dataIjS3_E(ptr noundef nonnull align 8 dereferenceable(20) %13, ptr noundef nonnull align 8 dereferenceable(16) %14)
  store i32 %15, ptr %6, align 4, !tbaa !27
  call void @llvm.lifetime.start.p0(i64 4, ptr %7) #3
  %16 = getelementptr inbounds nuw %class.core_hashtable, ptr %13, i32 0, i32 1
  %17 = load i32, ptr %16, align 8, !tbaa !474
  %18 = sub i32 %17, 1
  store i32 %18, ptr %7, align 4, !tbaa !27
  call void @llvm.lifetime.start.p0(i64 4, ptr %8) #3
  %19 = load i32, ptr %6, align 4, !tbaa !27
  %20 = load i32, ptr %7, align 4, !tbaa !27
  %21 = and i32 %19, %20
  store i32 %21, ptr %8, align 4, !tbaa !27
  call void @llvm.lifetime.start.p0(i64 8, ptr %9) #3
  %22 = getelementptr inbounds nuw %class.core_hashtable, ptr %13, i32 0, i32 0
  %23 = load ptr, ptr %22, align 8, !tbaa !473
  %24 = load i32, ptr %8, align 4, !tbaa !27
  %25 = zext i32 %24 to i64
  %26 = getelementptr inbounds nuw %class.default_map_entry, ptr %23, i64 %25
  store ptr %26, ptr %9, align 8, !tbaa !202
  call void @llvm.lifetime.start.p0(i64 8, ptr %10) #3
  %27 = getelementptr inbounds nuw %class.core_hashtable, ptr %13, i32 0, i32 0
  %28 = load ptr, ptr %27, align 8, !tbaa !473
  %29 = getelementptr inbounds nuw %class.core_hashtable, ptr %13, i32 0, i32 1
  %30 = load i32, ptr %29, align 8, !tbaa !474
  %31 = zext i32 %30 to i64
  %32 = getelementptr inbounds nuw %class.default_map_entry, ptr %28, i64 %31
  store ptr %32, ptr %10, align 8, !tbaa !202
  call void @llvm.lifetime.start.p0(i64 8, ptr %11) #3
  %33 = load ptr, ptr %9, align 8, !tbaa !202
  store ptr %33, ptr %11, align 8, !tbaa !202
  br label %34

34:                                               ; preds = %61, %2
  %35 = load ptr, ptr %11, align 8, !tbaa !202
  %36 = load ptr, ptr %10, align 8, !tbaa !202
  %37 = icmp ne ptr %35, %36
  br i1 %37, label %38, label %64

38:                                               ; preds = %34
  %39 = load ptr, ptr %11, align 8, !tbaa !202
  %40 = call noundef zeroext i1 @_ZNK18default_hash_entryI9_key_dataIjPN3mbp4termEEE7is_usedEv(ptr noundef nonnull align 8 dereferenceable(24) %39)
  br i1 %40, label %41, label %54

41:                                               ; preds = %38
  %42 = load ptr, ptr %11, align 8, !tbaa !202
  %43 = call noundef i32 @_ZNK18default_hash_entryI9_key_dataIjPN3mbp4termEEE8get_hashEv(ptr noundef nonnull align 8 dereferenceable(24) %42)
  %44 = load i32, ptr %6, align 4, !tbaa !27
  %45 = icmp eq i32 %43, %44
  br i1 %45, label %46, label %53

46:                                               ; preds = %41
  %47 = load ptr, ptr %11, align 8, !tbaa !202
  %48 = call noundef nonnull align 8 dereferenceable(16) ptr @_ZN18default_hash_entryI9_key_dataIjPN3mbp4termEEE8get_dataEv(ptr noundef nonnull align 8 dereferenceable(24) %47)
  %49 = load ptr, ptr %5, align 8, !tbaa !537
  %50 = call noundef zeroext i1 @_ZNK14core_hashtableI17default_map_entryIjPN3mbp4termEEN9table2mapIS4_6u_hash4u_eqE15entry_hash_procENS8_13entry_eq_procEE6equalsERK9_key_dataIjS3_ESF_(ptr noundef nonnull align 8 dereferenceable(20) %13, ptr noundef nonnull align 8 dereferenceable(16) %48, ptr noundef nonnull align 8 dereferenceable(16) %49)
  br i1 %50, label %51, label %53

51:                                               ; preds = %46
  %52 = load ptr, ptr %11, align 8, !tbaa !202
  store ptr %52, ptr %3, align 8
  store i32 1, ptr %12, align 4
  br label %98

53:                                               ; preds = %46, %41
  br label %60

54:                                               ; preds = %38
  %55 = load ptr, ptr %11, align 8, !tbaa !202
  %56 = call noundef zeroext i1 @_ZNK18default_hash_entryI9_key_dataIjPN3mbp4termEEE7is_freeEv(ptr noundef nonnull align 8 dereferenceable(24) %55)
  br i1 %56, label %57, label %58

57:                                               ; preds = %54
  store ptr null, ptr %3, align 8
  store i32 1, ptr %12, align 4
  br label %98

58:                                               ; preds = %54
  br label %59

59:                                               ; preds = %58
  br label %60

60:                                               ; preds = %59, %53
  br label %61

61:                                               ; preds = %60
  %62 = load ptr, ptr %11, align 8, !tbaa !202
  %63 = getelementptr inbounds nuw %class.default_map_entry, ptr %62, i32 1
  store ptr %63, ptr %11, align 8, !tbaa !202
  br label %34, !llvm.loop !539

64:                                               ; preds = %34
  %65 = getelementptr inbounds nuw %class.core_hashtable, ptr %13, i32 0, i32 0
  %66 = load ptr, ptr %65, align 8, !tbaa !473
  store ptr %66, ptr %11, align 8, !tbaa !202
  br label %67

67:                                               ; preds = %94, %64
  %68 = load ptr, ptr %11, align 8, !tbaa !202
  %69 = load ptr, ptr %9, align 8, !tbaa !202
  %70 = icmp ne ptr %68, %69
  br i1 %70, label %71, label %97

71:                                               ; preds = %67
  %72 = load ptr, ptr %11, align 8, !tbaa !202
  %73 = call noundef zeroext i1 @_ZNK18default_hash_entryI9_key_dataIjPN3mbp4termEEE7is_usedEv(ptr noundef nonnull align 8 dereferenceable(24) %72)
  br i1 %73, label %74, label %87

74:                                               ; preds = %71
  %75 = load ptr, ptr %11, align 8, !tbaa !202
  %76 = call noundef i32 @_ZNK18default_hash_entryI9_key_dataIjPN3mbp4termEEE8get_hashEv(ptr noundef nonnull align 8 dereferenceable(24) %75)
  %77 = load i32, ptr %6, align 4, !tbaa !27
  %78 = icmp eq i32 %76, %77
  br i1 %78, label %79, label %86

79:                                               ; preds = %74
  %80 = load ptr, ptr %11, align 8, !tbaa !202
  %81 = call noundef nonnull align 8 dereferenceable(16) ptr @_ZN18default_hash_entryI9_key_dataIjPN3mbp4termEEE8get_dataEv(ptr noundef nonnull align 8 dereferenceable(24) %80)
  %82 = load ptr, ptr %5, align 8, !tbaa !537
  %83 = call noundef zeroext i1 @_ZNK14core_hashtableI17default_map_entryIjPN3mbp4termEEN9table2mapIS4_6u_hash4u_eqE15entry_hash_procENS8_13entry_eq_procEE6equalsERK9_key_dataIjS3_ESF_(ptr noundef nonnull align 8 dereferenceable(20) %13, ptr noundef nonnull align 8 dereferenceable(16) %81, ptr noundef nonnull align 8 dereferenceable(16) %82)
  br i1 %83, label %84, label %86

84:                                               ; preds = %79
  %85 = load ptr, ptr %11, align 8, !tbaa !202
  store ptr %85, ptr %3, align 8
  store i32 1, ptr %12, align 4
  br label %98

86:                                               ; preds = %79, %74
  br label %93

87:                                               ; preds = %71
  %88 = load ptr, ptr %11, align 8, !tbaa !202
  %89 = call noundef zeroext i1 @_ZNK18default_hash_entryI9_key_dataIjPN3mbp4termEEE7is_freeEv(ptr noundef nonnull align 8 dereferenceable(24) %88)
  br i1 %89, label %90, label %91

90:                                               ; preds = %87
  store ptr null, ptr %3, align 8
  store i32 1, ptr %12, align 4
  br label %98

91:                                               ; preds = %87
  br label %92

92:                                               ; preds = %91
  br label %93

93:                                               ; preds = %92, %86
  br label %94

94:                                               ; preds = %93
  %95 = load ptr, ptr %11, align 8, !tbaa !202
  %96 = getelementptr inbounds nuw %class.default_map_entry, ptr %95, i32 1
  store ptr %96, ptr %11, align 8, !tbaa !202
  br label %67, !llvm.loop !540

97:                                               ; preds = %67
  store ptr null, ptr %3, align 8
  store i32 1, ptr %12, align 4
  br label %98

98:                                               ; preds = %97, %90, %84, %57, %51
  call void @llvm.lifetime.end.p0(i64 8, ptr %11) #3
  call void @llvm.lifetime.end.p0(i64 8, ptr %10) #3
  call void @llvm.lifetime.end.p0(i64 8, ptr %9) #3
  call void @llvm.lifetime.end.p0(i64 4, ptr %8) #3
  call void @llvm.lifetime.end.p0(i64 4, ptr %7) #3
  call void @llvm.lifetime.end.p0(i64 4, ptr %6) #3
  %99 = load ptr, ptr %3, align 8
  ret ptr %99
}

; Function Attrs: mustprogress uwtable
define linkonce_odr hidden noundef ptr @_ZNK9table2mapI17default_map_entryIjPN3mbp4termEE6u_hash4u_eqE9find_coreERKj(ptr noundef nonnull align 8 dereferenceable(24) %0, ptr noundef nonnull align 4 dereferenceable(4) %1) #4 comdat align 2 {
  %3 = alloca ptr, align 8
  %4 = alloca ptr, align 8
  %5 = alloca %struct._key_data, align 8
  store ptr %0, ptr %3, align 8, !tbaa !170
  store ptr %1, ptr %4, align 8, !tbaa !200
  %6 = load ptr, ptr %3, align 8
  %7 = getelementptr inbounds nuw %class.table2map, ptr %6, i32 0, i32 0
  call void @llvm.lifetime.start.p0(i64 16, ptr %5) #3
  %8 = getelementptr inbounds nuw %struct._key_data, ptr %5, i32 0, i32 0
  %9 = load ptr, ptr %4, align 8, !tbaa !200
  %10 = load i32, ptr %9, align 4, !tbaa !27
  store i32 %10, ptr %8, align 8, !tbaa !207
  %11 = getelementptr inbounds nuw %struct._key_data, ptr %5, i32 0, i32 1
  store ptr null, ptr %11, align 8, !tbaa !203
  %12 = call noundef ptr @_ZNK14core_hashtableI17default_map_entryIjPN3mbp4termEEN9table2mapIS4_6u_hash4u_eqE15entry_hash_procENS8_13entry_eq_procEE9find_coreERK9_key_dataIjS3_E(ptr noundef nonnull align 8 dereferenceable(20) %7, ptr noundef nonnull align 8 dereferenceable(16) %5)
  call void @llvm.lifetime.end.p0(i64 16, ptr %5) #3
  ret ptr %12
}

; Function Attrs: mustprogress uwtable
define linkonce_odr hidden noundef zeroext i1 @_ZNK9table2mapI17default_map_entryIjPN3mbp4termEE6u_hash4u_eqE8containsERKj(ptr noundef nonnull align 8 dereferenceable(24) %0, ptr noundef nonnull align 4 dereferenceable(4) %1) #4 comdat align 2 {
  %3 = alloca ptr, align 8
  %4 = alloca ptr, align 8
  store ptr %0, ptr %3, align 8, !tbaa !170
  store ptr %1, ptr %4, align 8, !tbaa !200
  %5 = load ptr, ptr %3, align 8
  %6 = load ptr, ptr %4, align 8, !tbaa !200
  %7 = call noundef ptr @_ZNK9table2mapI17default_map_entryIjPN3mbp4termEE6u_hash4u_eqE9find_coreERKj(ptr noundef nonnull align 8 dereferenceable(24) %5, ptr noundef nonnull align 4 dereferenceable(4) %6)
  %8 = icmp ne ptr %7, null
  ret i1 %8
}

; Function Attrs: mustprogress nounwind uwtable
define linkonce_odr hidden noundef i32 @_ZNK3ast6get_idEv(ptr noundef nonnull align 4 dereferenceable(16) %0) #6 comdat align 2 {
  %2 = alloca ptr, align 8
  store ptr %0, ptr %2, align 8, !tbaa !68
  %3 = load ptr, ptr %2, align 8
  %4 = getelementptr inbounds nuw %class.ast, ptr %3, i32 0, i32 0
  %5 = load i32, ptr %4, align 4, !tbaa !201
  ret i32 %5
}

; Function Attrs: mustprogress uwtable
define hidden noundef zeroext i1 @_ZN3mbp10term_graph15is_internalizedEP4expr(ptr noundef nonnull align 8 dereferenceable(244) %0, ptr noundef %1) #4 align 2 {
  %3 = alloca ptr, align 8
  %4 = alloca ptr, align 8
  %5 = alloca i32, align 4
  store ptr %0, ptr %3, align 8, !tbaa !12
  store ptr %1, ptr %4, align 8, !tbaa !8
  %6 = load ptr, ptr %3, align 8
  %7 = getelementptr inbounds nuw %"class.mbp::term_graph", ptr %6, i32 0, i32 3
  call void @llvm.lifetime.start.p0(i64 4, ptr %5) #3
  %8 = load ptr, ptr %4, align 8, !tbaa !8
  %9 = call noundef i32 @_ZNK3ast6get_idEv(ptr noundef nonnull align 4 dereferenceable(16) %8)
  store i32 %9, ptr %5, align 4, !tbaa !27
  %10 = call noundef zeroext i1 @_ZNK9table2mapI17default_map_entryIjPN3mbp4termEE6u_hash4u_eqE8containsERKj(ptr noundef nonnull align 8 dereferenceable(24) %7, ptr noundef nonnull align 4 dereferenceable(4) %5)
  call void @llvm.lifetime.end.p0(i64 4, ptr %5) #3
  ret i1 %10
}