; Function Attrs: mustprogress nofree norecurse nosync nounwind willreturn memory(read, inaccessiblemem: none) uwtable
define hidden noundef zeroext i1 @_ZN3mbp10term_graph15is_internalizedEP4expr(ptr noundef nonnull readonly align 8 captures(none) dereferenceable(244) %0, ptr noundef readonly captures(none) %1) local_unnamed_addr #8 align 2 {
  %3 = getelementptr inbounds nuw i8, ptr %0, i64 32
  %4 = load i32, ptr %1, align 4, !tbaa !94
  %5 = getelementptr inbounds nuw i8, ptr %0, i64 40
  %6 = load i32, ptr %5, align 8, !tbaa !109
  %7 = add i32 %6, -1
  %8 = and i32 %7, %4
  %9 = load ptr, ptr %3, align 8, !tbaa !106
  %10 = zext i32 %8 to i64
  %11 = getelementptr inbounds nuw %class.default_map_entry, ptr %9, i64 %10
  %12 = zext i32 %6 to i64
  %13 = getelementptr inbounds nuw %class.default_map_entry, ptr %9, i64 %12
  %.not30.i.i.i = icmp eq i32 %8, %6
  br i1 %.not30.i.i.i, label %.preheader.i.i.i, label %.lr.ph.i.i.i

.preheader.i.i.i:                                 ; preds = %23, %2
  %.not2732.i.i.i = icmp eq i32 %8, 0
  br i1 %.not2732.i.i.i, label %_ZNK9table2mapI17default_map_entryIjPN3mbp4termEE6u_hash4u_eqE8containsERKj.exit, label %.lr.ph34.i.i.i

.lr.ph.i.i.i:                                     ; preds = %2, %23
  %.031.i.i.i = phi ptr [ %24, %23 ], [ %11, %2 ]
  %14 = getelementptr inbounds nuw i8, ptr %.031.i.i.i, i64 4
  %15 = load i32, ptr %14, align 4, !tbaa !104
  switch i32 %15, label %23 [
    i32 2, label %16
    i32 0, label %_ZNK9table2mapI17default_map_entryIjPN3mbp4termEE6u_hash4u_eqE8containsERKj.exit
  ]

16:                                               ; preds = %.lr.ph.i.i.i
  %17 = load i32, ptr %.031.i.i.i, align 8, !tbaa !100
  %18 = icmp eq i32 %17, %4
  br i1 %18, label %19, label %23

19:                                               ; preds = %16
  %20 = getelementptr inbounds nuw i8, ptr %.031.i.i.i, i64 8
  %21 = load i32, ptr %20, align 8, !tbaa !194
  %22 = icmp eq i32 %21, %4
  br i1 %22, label %_ZNK9table2mapI17default_map_entryIjPN3mbp4termEE6u_hash4u_eqE8containsERKj.exit, label %23

23:                                               ; preds = %19, %16, %.lr.ph.i.i.i
  %24 = getelementptr inbounds nuw i8, ptr %.031.i.i.i, i64 24
  %.not.i.i.i = icmp eq ptr %24, %13
  br i1 %.not.i.i.i, label %.preheader.i.i.i, label %.lr.ph.i.i.i, !llvm.loop !195

.lr.ph34.i.i.i:                                   ; preds = %.preheader.i.i.i, %34
  %.133.i.i.i = phi ptr [ %35, %34 ], [ %9, %.preheader.i.i.i ]
  %25 = getelementptr inbounds nuw i8, ptr %.133.i.i.i, i64 4
  %26 = load i32, ptr %25, align 4, !tbaa !104
  switch i32 %26, label %34 [
    i32 2, label %27
    i32 0, label %_ZNK9table2mapI17default_map_entryIjPN3mbp4termEE6u_hash4u_eqE8containsERKj.exit
  ]

27:                                               ; preds = %.lr.ph34.i.i.i
  %28 = load i32, ptr %.133.i.i.i, align 8, !tbaa !100
  %29 = icmp eq i32 %28, %4
  br i1 %29, label %30, label %34

30:                                               ; preds = %27
  %31 = getelementptr inbounds nuw i8, ptr %.133.i.i.i, i64 8
  %32 = load i32, ptr %31, align 8, !tbaa !194
  %33 = icmp eq i32 %32, %4
  br i1 %33, label %_ZNK9table2mapI17default_map_entryIjPN3mbp4termEE6u_hash4u_eqE8containsERKj.exit, label %34

34:                                               ; preds = %30, %27, %.lr.ph34.i.i.i
  %35 = getelementptr inbounds nuw i8, ptr %.133.i.i.i, i64 24
  %.not27.i.i.i = icmp eq ptr %35, %11
  br i1 %.not27.i.i.i, label %_ZNK9table2mapI17default_map_entryIjPN3mbp4termEE6u_hash4u_eqE8containsERKj.exit, label %.lr.ph34.i.i.i, !llvm.loop !196

_ZNK9table2mapI17default_map_entryIjPN3mbp4termEE6u_hash4u_eqE8containsERKj.exit: ; preds = %.lr.ph.i.i.i, %19, %.lr.ph34.i.i.i, %30, %34, %.preheader.i.i.i
  %.026.i.i.i = phi i1 [ false, %.preheader.i.i.i ], [ false, %.lr.ph34.i.i.i ], [ false, %34 ], [ true, %30 ], [ true, %19 ], [ false, %.lr.ph.i.i.i ]
  ret i1 %.026.i.i.i
}